target datalayout = "e-m:e-p270:32:32-p271:32:32-p272:64:64-i64:64-i128:128-f80:128-n8:16:32:64-S128"
target triple = "x86_64-pc-linux-gnu"

%"struct.doctest::Approx" = type { double, double, double }

@_ZN7doctest6ApproxC1Ed = dso_local unnamed_addr alias void (ptr, double), ptr @_ZN7doctest6ApproxC2Ed

; Function Attrs: mustprogress nounwind uwtable
define dso_local noundef nonnull align 8 dereferenceable(24) ptr @_ZN7doctest6Approx5scaleEd(ptr noundef nonnull align 8 dereferenceable(24) %0, double noundef %1) #1 align 2 {
  %3 = alloca ptr, align 8
  %4 = alloca double, align 8
  store ptr %0, ptr %3, align 8, !tbaa !99
  store double %1, ptr %4, align 8, !tbaa !18
  %5 = load ptr, ptr %3, align 8
  %6 = load double, ptr %4, align 8, !tbaa !18
  %7 = getelementptr inbounds nuw %"struct.doctest::Approx", ptr %5, i32 0, i32 1
  store double %6, ptr %7, align 8, !tbaa !103
  ret ptr %5
}

; Function Attrs: mustprogress nounwind uwtable
define dso_local noundef nonnull align 8 dereferenceable(24) ptr @_ZN7doctest6Approx7epsilonEd(ptr noundef nonnull align 8 dereferenceable(24) %0, double noundef %1) #1 align 2 {
  %3 = alloca ptr, align 8
  %4 = alloca double, align 8
  store ptr %0, ptr %3, align 8, !tbaa !99
  store double %1, ptr %4, align 8, !tbaa !18
  %5 = load ptr, ptr %3, align 8
  %6 = load double, ptr %4, align 8, !tbaa !18
  %7 = getelementptr inbounds nuw %"struct.doctest::Approx", ptr %5, i32 0, i32 0
  store double %6, ptr %7, align 8, !tbaa !101
  ret ptr %5
}

; Function Attrs: mustprogress uwtable
define dso_local void @_ZNK7doctest6ApproxclEd(ptr dead_on_unwind noalias writable sret(%"struct.doctest::Approx") align 8 %0, ptr noundef nonnull align 8 dereferenceable(24) %1, double noundef %2) #8 align 2 {
  %4 = alloca ptr, align 8
  %5 = alloca double, align 8
  store ptr %1, ptr %4, align 8, !tbaa !99
  store double %2, ptr %5, align 8, !tbaa !18
  %6 = load ptr, ptr %4, align 8
  %7 = load double, ptr %5, align 8, !tbaa !18
  call void @_ZN7doctest6ApproxC1Ed(ptr noundef nonnull align 8 dereferenceable(24) %0, double noundef %7)
  %8 = getelementptr inbounds nuw %"struct.doctest::Approx", ptr %6, i32 0, i32 0
  %9 = load double, ptr %8, align 8, !tbaa !101
  %10 = call noundef nonnull align 8 dereferenceable(24) ptr @_ZN7doctest6Approx7epsilonEd(ptr noundef nonnull align 8 dereferenceable(24) %0, double noundef %9)
  %11 = getelementptr inbounds nuw %"struct.doctest::Approx", ptr %6, i32 0, i32 1
  %12 = load double, ptr %11, align 8, !tbaa !103
  %13 = call noundef nonnull align 8 dereferenceable(24) ptr @_ZN7doctest6Approx5scaleEd(ptr noundef nonnull align 8 dereferenceable(24) %0, double noundef %12)
  ret void
}