; Function Attrs: mustprogress nofree norecurse nosync nounwind willreturn memory(argmem: readwrite) uwtable
define dso_local void @_ZNK7doctest6ApproxclEd(ptr dead_on_unwind noalias writable writeonly sret(%"struct.doctest::Approx") align 8 captures(none) initializes((0, 24)) %0, ptr noundef nonnull readonly align 8 captures(none) dereferenceable(24) %1, double noundef %2) local_unnamed_addr #18 align 2 {
  %4 = getelementptr inbounds nuw i8, ptr %0, i64 8
  %5 = getelementptr inbounds nuw i8, ptr %0, i64 16
  store double %2, ptr %5, align 8, !tbaa !129
  %6 = load double, ptr %1, align 8, !tbaa !126
  store double %6, ptr %0, align 8, !tbaa !126
  %7 = getelementptr inbounds nuw i8, ptr %1, i64 8
  %8 = load double, ptr %7, align 8, !tbaa !128
  store double %8, ptr %4, align 8, !tbaa !128
  ret void
}